target datalayout = "e-m:e-p270:32:32-p271:32:32-p272:64:64-i64:64-i128:128-f80:128-n8:16:32:64-S128"
target triple = "x86_64-pc-linux-gnu"

%struct.StringInfoData = type { ptr, i32, i32, i32 }
%union.anon.3 = type { double }

@.str.1 = private unnamed_addr constant [11 x i8] c"pqformat.c\00", align 1
@.str.3 = private unnamed_addr constant [34 x i8] c"insufficient data left in message\00", align 1
@__func__.pq_copymsgbytes = private unnamed_addr constant [16 x i8] c"pq_copymsgbytes\00", align 1

; Function Attrs: nounwind uwtable
define dso_local void @pq_copymsgbytes(ptr noundef %0, ptr noundef %1, i32 noundef %2) #0 {
  %4 = alloca ptr, align 8
  %5 = alloca ptr, align 8
  %6 = alloca i32, align 4
  store ptr %0, ptr %4, align 8
  store ptr %1, ptr %5, align 8
  store i32 %2, ptr %6, align 4
  %7 = load i32, ptr %6, align 4
  %8 = icmp slt i32 %7, 0
  br i1 %8, label %19, label %9

9:                                                ; preds = %3
  %10 = load i32, ptr %6, align 4
  %11 = load ptr, ptr %4, align 8
  %12 = getelementptr inbounds nuw %struct.StringInfoData, ptr %11, i32 0, i32 1
  %13 = load i32, ptr %12, align 8
  %14 = load ptr, ptr %4, align 8
  %15 = getelementptr inbounds nuw %struct.StringInfoData, ptr %14, i32 0, i32 3
  %16 = load i32, ptr %15, align 8
  %17 = sub i32 %13, %16
  %18 = icmp sgt i32 %10, %17
  br i1 %18, label %19, label %30

19:                                               ; preds = %9, %3
  br label %20

20:                                               ; preds = %19
  br i1 true, label %21, label %23

21:                                               ; preds = %20
  %22 = call zeroext i1 @errstart_cold(i32 noundef 21, ptr noundef null) #10
  br i1 %22, label %25, label %28

23:                                               ; preds = %20
  %24 = call zeroext i1 @errstart(i32 noundef 21, ptr noundef null)
  br i1 %24, label %25, label %28

25:                                               ; preds = %23, %21
  %26 = call i32 @errcode(i32 noundef 16908800)
  %27 = call i32 (ptr, ...) @errmsg(ptr noundef @.str.3)
  call void @errfinish(ptr noundef @.str.1, i32 noundef 533, ptr noundef @__func__.pq_copymsgbytes)
  br label %28

28:                                               ; preds = %25, %23, %21
  unreachable

29:                                               ; No predecessors!
  br label %30

30:                                               ; preds = %29, %9
  %31 = load ptr, ptr %5, align 8
  %32 = load ptr, ptr %4, align 8
  %33 = getelementptr inbounds nuw %struct.StringInfoData, ptr %32, i32 0, i32 0
  %34 = load ptr, ptr %33, align 8
  %35 = load ptr, ptr %4, align 8
  %36 = getelementptr inbounds nuw %struct.StringInfoData, ptr %35, i32 0, i32 3
  %37 = load i32, ptr %36, align 8
  %38 = sext i32 %37 to i64
  %39 = getelementptr inbounds i8, ptr %34, i64 %38
  %40 = load i32, ptr %6, align 4
  %41 = sext i32 %40 to i64
  call void @llvm.memcpy.p0.p0.i64(ptr align 1 %31, ptr align 1 %39, i64 %41, i1 false)
  %42 = load i32, ptr %6, align 4
  %43 = load ptr, ptr %4, align 8
  %44 = getelementptr inbounds nuw %struct.StringInfoData, ptr %43, i32 0, i32 3
  %45 = load i32, ptr %44, align 8
  %46 = add i32 %45, %42
  store i32 %46, ptr %44, align 8
  ret void
}

; Function Attrs: nounwind uwtable
define dso_local i64 @pq_getmsgint64(ptr noundef %0) #0 {
  %2 = alloca ptr, align 8
  %3 = alloca i64, align 8
  store ptr %0, ptr %2, align 8
  call void @llvm.lifetime.start.p0(i64 8, ptr %3) #8
  %4 = load ptr, ptr %2, align 8
  call void @pq_copymsgbytes(ptr noundef %4, ptr noundef %3, i32 noundef 8)
  %5 = load i64, ptr %3, align 8
  %6 = call i64 @llvm.bswap.i64(i64 %5)
  call void @llvm.lifetime.end.p0(i64 8, ptr %3) #8
  ret i64 %6
}

; Function Attrs: nounwind uwtable
define dso_local double @pq_getmsgfloat8(ptr noundef %0) #0 {
  %2 = alloca ptr, align 8
  %3 = alloca %union.anon.3, align 8
  store ptr %0, ptr %2, align 8
  call void @llvm.lifetime.start.p0(i64 8, ptr %3) #8
  %4 = load ptr, ptr %2, align 8
  %5 = call i64 @pq_getmsgint64(ptr noundef %4)
  store i64 %5, ptr %3, align 8
  %6 = load double, ptr %3, align 8
  call void @llvm.lifetime.end.p0(i64 8, ptr %3) #8
  ret double %6
}